(lp0
(dp1
S'info'
p2
(dp3
S'sort'
p4
S'-published'
p5
sS'list'
p6
NsS'content'
p7
ccopy_reg
_reconstructor
p8
(cmarkdown2
UnicodeWithAttrs
p9
c__builtin__
unicode
p10
V<p>Welcome</p>\u000a
p11
tp12
Rp13
sS'limit'
p14
I20
sS'title'
p15
S'Welcome'
p16
ssS'path'
p17
S'./content/index.txt'
p18
sS'modified'
p19
F1331278259.0
sa(dp20
g2
(dp21
S'filter'
p22
S'link'
p23
sS'list'
p24
Nsg7
g8
(g9
g10
V<p>This is a list of all links ever written.</p>\u000a
p25
tp26
Rp27
sS'type'
p28
S'archive'
p29
sg15
S'All links'
p30
ssg17
S'./content/links.txt'
p31
sg19
F1331417900.0
sa(dp32
g2
(dp33
g7
g8
(g9
g10
V<h2>Experience</h2>\u000a\u000a<h3>2011 - Current: Developer Programs Engineer, <a href="http://www.google.com">Google</a></h3>\u000a\u000a<h3>Summer 2010: Software Engineer Intern, <a href="http://www.google.com">Google</a></h3>\u000a\u000a<ul>\u000a<li><em>Note: kept deliberately vague for confidentiality.</em></li>\u000a<li>Wrote product requirements and designed UI concepts for a major\u000aGoogle TV feature</li>\u000a<li>Implemented a working prototype in Java/Android</li>\u000a<li>Designed and executed a lab usability study</li>\u000a</ul>\u000a\u000a<h3>2006 \u2013 2009: Software Engineer, <a href="http://www.apple.com">Apple</a></h3>\u000a\u000a<ul>\u000a<li>Developed software architecture for significant portions of\u000a<a href="http://www.iwork.com/">iWork.com</a></li>\u000a<li>Implemented new features for iWeb and the iWork suite in Objective-C</li>\u000a<li>Created a text and object selection engine in JavaScript</li>\u000a<li>Built a cross-browser graphics library using SVG, Canvas and VML</li>\u000a<li>Prototyped new product ideas using JavaScript and Ruby on Rails</li>\u000a<li>Worked closely with visual designers on new products</li>\u000a<li>Wrote parts of the Microsoft Office document viewer for iPhone Mail</li>\u000a</ul>\u000a\u000a<h3>Summer 2005: Software Engineer Intern, <a href="http://www.rim.com">Research in Motion</a></h3>\u000a\u000a<ul>\u000a<li>Developed features for a 2D graphics engine in J2ME, part of\u000aBlackBerry OS</li>\u000a<li>Created a python program to automate SVG content generation to test\u000athis engine</li>\u000a<li>Proposed a test suite to verify rendering output against a image</li>\u000a</ul>\u000a\u000a<h3>Summer 2004: Software Engineer Intern, <a href="http://www.customhouse.ca/">Custom House</a></h3>\u000a\u000a<ul>\u000a<li>Created a GUI to facilitate user friendly mapping from excel into a\u000aMSSQL database</li>\u000a<li>Contributed improvements to a large currency exchange system written\u000ain C#</li>\u000a<li>Followed Agile software development principles: unit testing, scrums</li>\u000a</ul>\u000a\u000a<h3>Summer 2003: Software Engineer Intern, SchemaSoft (now Apple)</h3>\u000a\u000a<ul>\u000a<li>Developed bindings for a subset of the SVG DOM in C++</li>\u000a<li>Implemented in C# an editor for easily editing and navigating XML\u000adocuments</li>\u000a<li>Maintained a network of 100 computers running Linux, Mac, and\u000aWindows</li>\u000a<li>Provided technical support to a large international conference: SVG\u000aOpen 2003</li>\u000a</ul>\u000a\u000a<h2>Education</h2>\u000a\u000a<h3>2009 \u2013 2010: Graduate Student, <a href="http://www.cmu.edu">Carnegie Mellon University</a></h3>\u000a\u000a<ul>\u000a<li>Masters of Human-Computer Interaction</li>\u000a<li>Capstone project: Portugal Telecom Innovation (Team Lead)</li>\u000a</ul>\u000a\u000a<h3>2002 \u2013 2007: Undergraduate Student, <a href="http://www.ubc.edu">University of British Columbia</a></h3>\u000a\u000a<ul>\u000a<li>BSc (honors) in Mathematics and Computer Science (with Co-op)</li>\u000a</ul>\u000a\u000a<h2>Other</h2>\u000a\u000a<h3>Publications</h3>\u000a\u000a<ul>\u000a<li><p>Rogstadius, J., Kittur, N., Kostakos, V., Smus, B., Laredo, J., Vukovic, M.\u000aAn Assessment of Intrinsic and Extrinsic Motivation on Task Performance in\u000aCrowdsourcing Markets. <em>Conference on Weblogs and Social Media 2011,\u000aBarcelona, Spain</em></p></li>\u000a<li><p>Kittur, N., Smus, B., and Kraut, R.E. CrowdForge: Crowdsourcing Complex\u000aWork. <em>Proceedings of the extended abstracts of CHI 2011, Vancouver,\u000aCanada.</em></p></li>\u000a<li><p>Smus, B., Kostakos, V. Running gestures: hands-free interaction\u000aduring physical activity.  <em>Adjunct proceedings of Ubicomp 2010,\u000aCopehnagen, Denmark.</em></p></li>\u000a<li><p>Smus, B., Gross, M. Ubiquitous drums: a tangible, wearable musical\u000ainterface. <em>Proceedings of the extended abstracts of CHI 2010, Atlanta,\u000aGeorgia.</em></p></li>\u000a</ul>\u000a\u000a<h3>Patents</h3>\u000a\u000a<ul>\u000a<li>Smus, B., Kittur, N. and Kraut, R.E. CrowdForge: Crowdsourcing\u000aComplex Work, CMU (2010 Provisional)</li>\u000a<li>Bultrowicz, M., Smus, B. Shared Comments for Online Document\u000aCollaboration, Apple Inc (2009)</li>\u000a</ul>\u000a
p34
tp35
Rp36
sS'type'
p37
S'page'
p38
sS'slug'
p39
S'resume'
p40
sg15
S'Resume'
p41
ssg17
S'./content/pages/resume.txt'
p42
sg19
F1331430438.0
sa(dp43
g2
(dp44
g7
g8
(g9
g10
V<p>Before Google, I was a graduate student at Carnegie Mellon University,\u000awhere I did HCI research in wearable and social computing. I also\u000astudied user experience research and design and led an interdisciplinary\u000ateam working on a project for Portugal Telecom Innovation.</p>\u000a\u000a<p>I became interested in HCI after working as an engineer at Apple for a\u000acouple of years. Dipping into Apple's culture, I learned to appreciate\u000athe importance of high quality user interfaces. At Apple I wrote large\u000achunks of iWork.com and interned on iWeb.</p>\u000a\u000a<p>I joined Apple right after graduating from the University of British\u000aColumbia in Vancouver, Canada with a Bachelors degree. I studied\u000amathematics and computer science, focusing on algorithms and computer\u000agraphics.</p>\u000a\u000a<p>Still not bored? Read my <a href="/resume">resume</a>.</p>\u000a\u000a<h2>Hobbies and stuff</h2>\u000a\u000a<ul>\u000a<li>Long distance runner (5K in under 19m, 10K in under 39m)</li>\u000a<li>Skiing instructor (CSIA L1)</li>\u000a<li>Classical pianist (RCM Grade 10)</li>\u000a<li>Mediocre guitarist, singer and accordionist</li>\u000a</ul>\u000a
p45
tp46
Rp47
sS'type'
p48
S'page'
p49
sS'slug'
p50
S'about'
p51
sg15
S'About'
p52
ssg17
S'./content/pages/about/index.txt'
p53
sg19
F1331430451.0
sa(dp54
g2
(dp55
g15
S'Draft 2'
p56
sg7
g8
(g9
g10
V<p>Blah blah.</p>\u000a
p57
tp58
Rp59
sS'posted_info'
p60
(dp61
S'month'
p62
I1
sS'minute'
p63
I22
sS'day'
p64
I3
sS'hour'
p65
I22
sS'year'
p66
I2012
ssS'type'
p67
S'post'
p68
sS'slug'
p69
S'foo-bar'
p70
sS'posted'
p71
S'2012-01-03 22:22'
p72
ssg17
S'./content/posts/2012/second-post.txt'
p73
sg19
F1331430465.0
sa(dp74
g2
(dp75
g15
S'My draft title'
p76
sg7
g8
(g9
g10
V<p>If there's no Published property set, the page will not be published.</p>\u000a
p77
tp78
Rp79
sg60
(dp80
g62
I10
sg63
I0
sg64
I12
sg65
I9
sg66
I2011
ssS'type'
p81
S'post'
p82
sS'slug'
p83
S'draft-post'
p84
sS'posted'
p85
S'2011-10-12 9:00'
p86
ssg17
S'./content/posts/2012/first-post/index.txt'
p87
sg19
F1331430469.0
sa.